target datalayout = "e-m:e-p270:32:32-p271:32:32-p272:64:64-i64:64-i128:128-f80:128-n8:16:32:64-S128"
target triple = "x86_64-unknown-linux-gnu"

%"class.icu_75::UObject" = type { ptr }
%"class.icu_75::TaiwanCalendar" = type { %"class.icu_75::GregorianCalendar.base", [2 x i8] }
%"class.icu_75::GregorianCalendar.base" = type <{ %"class.icu_75::Calendar.base", [6 x i8], double, i32, [4 x i8], double, i32, i8, i8 }>
%"class.icu_75::Calendar.base" = type <{ %"class.icu_75::UObject", i8, i8, i8, i8, [24 x i32], [24 x i8], [24 x i32], i32, double, i8, [7 x i8], ptr, i32, i32, i32, i8, [3 x i8], i32, i32, i32, i32, i32, i32, i32, i32, [157 x i8], [157 x i8] }>
%"class.icu_75::Locale" = type <{ %"class.icu_75::UObject", [12 x i8], [6 x i8], [4 x i8], [2 x i8], i32, [4 x i8], ptr, [157 x i8], [3 x i8], ptr, i8, [7 x i8] }>

@_ZN6icu_75L26gSystemDefaultCenturyStartE = internal global double 0x10000000000000, align 8
@_ZN6icu_75L30gSystemDefaultCenturyStartYearE = internal global i32 -1, align 4
@.str.2 = private unnamed_addr constant [14 x i8] c"@calendar=roc\00", align 1
@_ZN6icu_7514TaiwanCalendarC1ERKNS_6LocaleER10UErrorCode = unnamed_addr alias void (ptr, ptr, ptr), ptr @_ZN6icu_7514TaiwanCalendarC2ERKNS_6LocaleER10UErrorCode
@_ZN6icu_7514TaiwanCalendarD1Ev = unnamed_addr alias void (ptr), ptr @_ZN6icu_7514TaiwanCalendarD2Ev

; Function Attrs: mustprogress uwtable
define linkonce_odr noundef double @_ZNK6icu_758Calendar7getTimeER10UErrorCode(ptr noundef nonnull align 8 dereferenceable(618) %this, ptr noundef nonnull align 4 dereferenceable(4) %status) #1 comdat align 2 {
entry:
  %this.addr = alloca ptr, align 8
  %status.addr = alloca ptr, align 8
  store ptr %this, ptr %this.addr, align 8
  store ptr %status, ptr %status.addr, align 8
  %this1 = load ptr, ptr %this.addr, align 8
  %0 = load ptr, ptr %status.addr, align 8
  %call = call noundef double @_ZNK6icu_758Calendar15getTimeInMillisER10UErrorCode(ptr noundef nonnull align 8 dereferenceable(618) %this1, ptr noundef nonnull align 4 dereferenceable(4) %0)
  ret double %call
}

; Function Attrs: mustprogress uwtable
define linkonce_odr void @_ZN6icu_758Calendar7setTimeEdR10UErrorCode(ptr noundef nonnull align 8 dereferenceable(618) %this, double noundef %date, ptr noundef nonnull align 4 dereferenceable(4) %status) #1 comdat align 2 {
entry:
  %this.addr = alloca ptr, align 8
  %date.addr = alloca double, align 8
  %status.addr = alloca ptr, align 8
  store ptr %this, ptr %this.addr, align 8
  store double %date, ptr %date.addr, align 8
  store ptr %status, ptr %status.addr, align 8
  %this1 = load ptr, ptr %this.addr, align 8
  %0 = load double, ptr %date.addr, align 8
  %1 = load ptr, ptr %status.addr, align 8
  call void @_ZN6icu_758Calendar15setTimeInMillisEdR10UErrorCode(ptr noundef nonnull align 8 dereferenceable(618) %this1, double noundef %0, ptr noundef nonnull align 4 dereferenceable(4) %1)
  ret void
}

; Function Attrs: mustprogress nounwind uwtable
define internal noundef signext i8 @_ZL9U_SUCCESS10UErrorCode(i32 noundef %code) #0 {
entry:
  %code.addr = alloca i32, align 4
  store i32 %code, ptr %code.addr, align 4
  %0 = load i32, ptr %code.addr, align 4
  %cmp = icmp sle i32 %0, 0
  %conv = zext i1 %cmp to i8
  ret i8 %conv
}

; Function Attrs: mustprogress uwtable
define internal void @_ZN6icu_75L30initializeSystemDefaultCenturyEv() #1 personality ptr @__gxx_personality_v0 {
entry:
  %status = alloca i32, align 4
  %calendar = alloca %"class.icu_75::TaiwanCalendar", align 8
  %ref.tmp = alloca %"class.icu_75::Locale", align 8
  %exn.slot = alloca ptr, align 8
  %ehselector.slot = alloca i32, align 4
  store i32 0, ptr %status, align 4
  call void @_ZN6icu_756LocaleC1EPKcS2_S2_S2_(ptr noundef nonnull align 8 dereferenceable(217) %ref.tmp, ptr noundef @.str.2, ptr noundef null, ptr noundef null, ptr noundef null)
  invoke void @_ZN6icu_7514TaiwanCalendarC1ERKNS_6LocaleER10UErrorCode(ptr noundef nonnull align 8 dereferenceable(654) %calendar, ptr noundef nonnull align 8 dereferenceable(217) %ref.tmp, ptr noundef nonnull align 4 dereferenceable(4) %status)
          to label %invoke.cont unwind label %lpad

invoke.cont:                                      ; preds = %entry
  call void @_ZN6icu_756LocaleD1Ev(ptr noundef nonnull align 8 dereferenceable(217) %ref.tmp) #5
  %0 = load i32, ptr %status, align 4
  %call = invoke noundef signext i8 @_ZL9U_SUCCESS10UErrorCode(i32 noundef %0)
          to label %invoke.cont2 unwind label %lpad1

invoke.cont2:                                     ; preds = %invoke.cont
  %tobool = icmp ne i8 %call, 0
  br i1 %tobool, label %if.then, label %if.end

if.then:                                          ; preds = %invoke.cont2
  %call4 = invoke noundef double @_ZN6icu_758Calendar6getNowEv()
          to label %invoke.cont3 unwind label %lpad1

invoke.cont3:                                     ; preds = %if.then
  invoke void @_ZN6icu_758Calendar7setTimeEdR10UErrorCode(ptr noundef nonnull align 8 dereferenceable(618) %calendar, double noundef %call4, ptr noundef nonnull align 4 dereferenceable(4) %status)
          to label %invoke.cont5 unwind label %lpad1

invoke.cont5:                                     ; preds = %invoke.cont3
  invoke void @_ZN6icu_758Calendar3addE19UCalendarDateFieldsiR10UErrorCode(ptr noundef nonnull align 8 dereferenceable(618) %calendar, i32 noundef 1, i32 noundef -80, ptr noundef nonnull align 4 dereferenceable(4) %status)
          to label %invoke.cont6 unwind label %lpad1

invoke.cont6:                                     ; preds = %invoke.cont5
  %call8 = invoke noundef double @_ZNK6icu_758Calendar7getTimeER10UErrorCode(ptr noundef nonnull align 8 dereferenceable(618) %calendar, ptr noundef nonnull align 4 dereferenceable(4) %status)
          to label %invoke.cont7 unwind label %lpad1

invoke.cont7:                                     ; preds = %invoke.cont6
  store double %call8, ptr @_ZN6icu_75L26gSystemDefaultCenturyStartE, align 8
  %call10 = invoke noundef i32 @_ZNK6icu_758Calendar3getE19UCalendarDateFieldsR10UErrorCode(ptr noundef nonnull align 8 dereferenceable(618) %calendar, i32 noundef 1, ptr noundef nonnull align 4 dereferenceable(4) %status)
          to label %invoke.cont9 unwind label %lpad1

invoke.cont9:                                     ; preds = %invoke.cont7
  store i32 %call10, ptr @_ZN6icu_75L30gSystemDefaultCenturyStartYearE, align 4
  br label %if.end

lpad:                                             ; preds = %entry
  %1 = landingpad { ptr, i32 }
          cleanup
  %2 = extractvalue { ptr, i32 } %1, 0
  store ptr %2, ptr %exn.slot, align 8
  %3 = extractvalue { ptr, i32 } %1, 1
  store i32 %3, ptr %ehselector.slot, align 4
  call void @_ZN6icu_756LocaleD1Ev(ptr noundef nonnull align 8 dereferenceable(217) %ref.tmp) #5
  br label %eh.resume

lpad1:                                            ; preds = %invoke.cont7, %invoke.cont6, %invoke.cont5, %invoke.cont3, %if.then, %invoke.cont
  %4 = landingpad { ptr, i32 }
          cleanup
  %5 = extractvalue { ptr, i32 } %4, 0
  store ptr %5, ptr %exn.slot, align 8
  %6 = extractvalue { ptr, i32 } %4, 1
  store i32 %6, ptr %ehselector.slot, align 4
  call void @_ZN6icu_7514TaiwanCalendarD1Ev(ptr noundef nonnull align 8 dereferenceable(654) %calendar) #5
  br label %eh.resume

if.end:                                           ; preds = %invoke.cont9, %invoke.cont2
  call void @_ZN6icu_7514TaiwanCalendarD1Ev(ptr noundef nonnull align 8 dereferenceable(654) %calendar) #5
  ret void

eh.resume:                                        ; preds = %lpad1, %lpad
  %exn = load ptr, ptr %exn.slot, align 8
  %sel = load i32, ptr %ehselector.slot, align 4
  %lpad.val = insertvalue { ptr, i32 } poison, ptr %exn, 0
  %lpad.val11 = insertvalue { ptr, i32 } %lpad.val, i32 %sel, 1
  resume { ptr, i32 } %lpad.val11
}