; Function Attrs: mustprogress uwtable
define internal fastcc void @_ZN6icu_75L30initializeSystemDefaultCenturyEv() unnamed_addr #1 personality ptr @__gxx_personality_v0 {
entry:
  %status = alloca i32, align 4
  %calendar = alloca %"class.icu_75::TaiwanCalendar", align 8
  %ref.tmp = alloca %"class.icu_75::Locale", align 8
  store i32 0, ptr %status, align 4
  call void @_ZN6icu_756LocaleC1EPKcS2_S2_S2_(ptr noundef nonnull align 8 dereferenceable(217) %ref.tmp, ptr noundef nonnull @.str.2, ptr noundef null, ptr noundef null, ptr noundef null)
  invoke void @_ZN6icu_7514TaiwanCalendarC1ERKNS_6LocaleER10UErrorCode(ptr noundef nonnull align 8 dereferenceable(654) %calendar, ptr noundef nonnull align 8 dereferenceable(217) %ref.tmp, ptr noundef nonnull align 4 dereferenceable(4) %status)
          to label %invoke.cont unwind label %lpad

invoke.cont:                                      ; preds = %entry
  call void @_ZN6icu_756LocaleD1Ev(ptr noundef nonnull align 8 dereferenceable(217) %ref.tmp) #5
  %0 = load i32, ptr %status, align 4
  %cmp.i = icmp sgt i32 %0, 0
  br i1 %cmp.i, label %if.end, label %if.then

if.then:                                          ; preds = %invoke.cont
  %call4 = invoke noundef double @_ZN6icu_758Calendar6getNowEv()
          to label %invoke.cont3 unwind label %lpad1

invoke.cont3:                                     ; preds = %if.then
  invoke void @_ZN6icu_758Calendar15setTimeInMillisEdR10UErrorCode(ptr noundef nonnull align 8 dereferenceable(618) %calendar, double noundef %call4, ptr noundef nonnull align 4 dereferenceable(4) %status)
          to label %invoke.cont5 unwind label %lpad1

invoke.cont5:                                     ; preds = %invoke.cont3
  invoke void @_ZN6icu_758Calendar3addE19UCalendarDateFieldsiR10UErrorCode(ptr noundef nonnull align 8 dereferenceable(618) %calendar, i32 noundef 1, i32 noundef -80, ptr noundef nonnull align 4 dereferenceable(4) %status)
          to label %invoke.cont6 unwind label %lpad1

invoke.cont6:                                     ; preds = %invoke.cont5
  %call.i2 = invoke noundef double @_ZNK6icu_758Calendar15getTimeInMillisER10UErrorCode(ptr noundef nonnull align 8 dereferenceable(618) %calendar, ptr noundef nonnull align 4 dereferenceable(4) %status)
          to label %invoke.cont7 unwind label %lpad1

invoke.cont7:                                     ; preds = %invoke.cont6
  store double %call.i2, ptr @_ZN6icu_75L26gSystemDefaultCenturyStartE, align 8
  %call10 = invoke noundef i32 @_ZNK6icu_758Calendar3getE19UCalendarDateFieldsR10UErrorCode(ptr noundef nonnull align 8 dereferenceable(618) %calendar, i32 noundef 1, ptr noundef nonnull align 4 dereferenceable(4) %status)
          to label %invoke.cont9 unwind label %lpad1

invoke.cont9:                                     ; preds = %invoke.cont7
  store i32 %call10, ptr @_ZN6icu_75L30gSystemDefaultCenturyStartYearE, align 4
  br label %if.end

lpad:                                             ; preds = %entry
  %1 = landingpad { ptr, i32 }
          cleanup
  call void @_ZN6icu_756LocaleD1Ev(ptr noundef nonnull align 8 dereferenceable(217) %ref.tmp) #5
  br label %eh.resume

lpad1:                                            ; preds = %invoke.cont6, %invoke.cont3, %invoke.cont7, %invoke.cont5, %if.then
  %2 = landingpad { ptr, i32 }
          cleanup
  call void @_ZN6icu_7514TaiwanCalendarD1Ev(ptr noundef nonnull align 8 dereferenceable(654) %calendar) #5
  br label %eh.resume

if.end:                                           ; preds = %invoke.cont9, %invoke.cont
  call void @_ZN6icu_7514TaiwanCalendarD1Ev(ptr noundef nonnull align 8 dereferenceable(654) %calendar) #5
  ret void

eh.resume:                                        ; preds = %lpad1, %lpad
  %.pn = phi { ptr, i32 } [ %2, %lpad1 ], [ %1, %lpad ]
  resume { ptr, i32 } %.pn
}